; Function Attrs: nounwind uwtable
define dso_local void @WPACKET_cleanup(ptr noundef captures(none) %0) local_unnamed_addr #0 {
  %2 = getelementptr inbounds nuw i8, ptr %0, i64 40
  %3 = load ptr, ptr %2, align 8, !tbaa !4
  %.not6 = icmp eq ptr %3, null
  br i1 %.not6, label %._crit_edge, label %.lr.ph

.lr.ph:                                           ; preds = %1, %.lr.ph
  %.07 = phi ptr [ %4, %.lr.ph ], [ %3, %1 ]
  %4 = load ptr, ptr %.07, align 8, !tbaa !25
  tail call void @CRYPTO_free(ptr noundef nonnull %.07, ptr noundef nonnull @.str, i32 noundef 532) #12
  %.not = icmp eq ptr %4, null
  br i1 %.not, label %._crit_edge, label %.lr.ph, !llvm.loop !39

._crit_edge:                                      ; preds = %.lr.ph, %1
  store ptr null, ptr %2, align 8, !tbaa !4
  ret void
}